; Function Attrs: mustprogress nounwind uwtable
define hidden void @_ZN8ZWorkers12set_inactiveEv(ptr noundef nonnull align 8 dereferenceable(184) %0) local_unnamed_addr #0 align 2 {
_ZN7ZLockerI5ZLockED2Ev.exit:
  %1 = getelementptr inbounds i8, ptr %0, i64 128
  %2 = tail call i32 @pthread_mutex_lock(ptr noundef nonnull %1) #8
  %3 = getelementptr inbounds i8, ptr %0, i64 172
  store i8 0, ptr %3, align 4
  %4 = tail call i32 @pthread_mutex_unlock(ptr noundef nonnull %1) #8
  ret void
}